(dp0
S'METTS MARK'
p1
(dp2
S'to_messages'
p3
I807
sS'deferral_payments'
p4
S'NaN'
p5
sS'expenses'
p6
I94299
sS'poi'
p7
I00
sS'deferred_income'
p8
g5
sS'email_address'
p9
S'mark.metts@enron.com'
p10
sS'long_term_incentive'
p11
g5
sS'restricted_stock_deferred'
p12
g5
sS'shared_receipt_with_poi'
p13
I702
sS'loan_advances'
p14
g5
sS'from_messages'
p15
I29
sS'other'
p16
I1740
sS'to_poi_ratio'
p17
F0.0012391573729863693
sS'director_fees'
p18
g5
sS'bonus'
p19
I600000
sS'total_stock_value'
p20
I585062
sS'from_poi_to_this_person'
p21
I38
sS'from_this_person_to_poi'
p22
I1
sS'from_poi_ratio'
p23
F1.3103448275862069
sS'restricted_stock'
p24
I585062
sS'salary'
p25
I365788
sS'total_payments'
p26
I1061827
sS'exercised_stock_options'
p27
g5
ssS'BAXTER JOHN C'
p28
(dp29
g3
g5
sg4
I1295738
sg6
I11200
sg7
I00
sg8
I-1386055
sg9
g5
sg11
I1586055
sg12
g5
sg13
g5
sg14
g5
sg15
g5
sg16
I2660303
sg17
S'NaN'
p30
sg18
g5
sg19
I1200000
sg20
I10623258
sg21
g5
sg22
g5
sg23
g30
sg24
I3942714
sg25
I267102
sg26
I5634343
sg27
I6680544
ssS'ELLIOTT STEVEN'
p31
(dp32
g3
g5
sg4
g5
sg6
I78552
sg7
I00
sg8
I-400729
sg9
S'steven.elliott@enron.com'
p33
sg11
g5
sg12
g5
sg13
g5
sg14
g5
sg15
g5
sg16
I12961
sg17
g30
sg18
g5
sg19
I350000
sg20
I6678735
sg21
g5
sg22
g5
sg23
g30
sg24
I1788391
sg25
I170941
sg26
I211725
sg27
I4890344
ssS'CORDES WILLIAM R'
p34
(dp35
g3
I764
sg4
g5
sg6
g5
sg7
I00
sg8
g5
sg9
S'bill.cordes@enron.com'
p36
sg11
g5
sg12
g5
sg13
I58
sg14
g5
sg15
I12
sg16
g5
sg17
F0.0
sg18
g5
sg19
g5
sg20
I1038185
sg21
I10
sg22
I0
sg23
F0.8333333333333334
sg24
I386335
sg25
g5
sg26
g5
sg27
I651850
ssS'HANNON KEVIN P'
p37
(dp38
g3
I1045
sg4
g5
sg6
I34039
sg7
I01
sg8
I-3117011
sg9
S'kevin.hannon@enron.com'
p39
sg11
I1617011
sg12
g5
sg13
I1035
sg14
g5
sg15
I32
sg16
I11350
sg17
F0.020095693779904306
sg18
g5
sg19
I1500000
sg20
I6391065
sg21
I32
sg22
I21
sg23
F1.0
sg24
I853064
sg25
I243293
sg26
I288682
sg27
I5538001
ssS'MORDAUNT KRISTINA M'
p40
(dp41
g3
g5
sg4
g5
sg6
I35018
sg7
I00
sg8
g5
sg9
S'kristina.mordaunt@enron.com'
p42
sg11
g5
sg12
g5
sg13
g5
sg14
g5
sg15
g5
sg16
I1411
sg17
g30
sg18
g5
sg19
I325000
sg20
I208510
sg21
g5
sg22
g5
sg23
g30
sg24
I208510
sg25
I267093
sg26
I628522
sg27
g5
ssS'MEYER ROCKFORD G'
p43
(dp44
g3
I232
sg4
I1848227
sg6
g5
sg7
I00
sg8
g5
sg9
S'rockford.meyer@enron.com'
p45
sg11
g5
sg12
g5
sg13
I22
sg14
g5
sg15
I28
sg16
g5
sg17
F0.0
sg18
g5
sg19
g5
sg20
I955873
sg21
I0
sg22
I0
sg23
F0.0
sg24
I462384
sg25
g5
sg26
I1848227
sg27
I493489
ssS'MCMAHON JEFFREY'
p46
(dp47
g3
I2355
sg4
g5
sg6
I137108
sg7
I00
sg8
g5
sg9
S'jeffrey.mcmahon@enron.com'
p48
sg11
I694862
sg12
g5
sg13
I2228
sg14
g5
sg15
I48
sg16
I297353
sg17
F0.011040339702760084
sg18
g5
sg19
I2600000
sg20
I1662855
sg21
I58
sg22
I26
sg23
F1.2083333333333333
sg24
I558801
sg25
I370448
sg26
I4099771
sg27
I1104054
ssS'HORTON STANLEY C'
p49
(dp50
g3
I2350
sg4
I3131860
sg6
g5
sg7
I00
sg8
g5
sg9
S'stanley.horton@enron.com'
p51
sg11
g5
sg12
g5
sg13
I1074
sg14
g5
sg15
I1073
sg16
g5
sg17
F0.006382978723404255
sg18
g5
sg19
g5
sg20
I7256648
sg21
I44
sg22
I15
sg23
F0.04100652376514446
sg24
I2046079
sg25
g5
sg26
I3131860
sg27
I5210569
ssS'PIPER GREGORY F'
p52
(dp53
g3
I1238
sg4
I1130036
sg6
I43057
sg7
I00
sg8
I-33333
sg9
S'greg.piper@enron.com'
p54
sg11
g5
sg12
I-409554
sg13
I742
sg14
g5
sg15
I222
sg16
I778
sg17
F0.03877221324717286
sg18
g5
sg19
I400000
sg20
I880290
sg21
I61
sg22
I48
sg23
F0.2747747747747748
sg24
I409554
sg25
I197091
sg26
I1737629
sg27
I880290
ssS'HUMPHREY GENE E'
p55
(dp56
g3
I128
sg4
I2964506
sg6
I4994
sg7
I00
sg8
g5
sg9
S'gene.humphrey@enron.com'
p57
sg11
g5
sg12
g5
sg13
I119
sg14
g5
sg15
I17
sg16
g5
sg17
F0.1328125
sg18
g5
sg19
g5
sg20
I2282768
sg21
I10
sg22
I17
sg23
F0.5882352941176471
sg24
g5
sg25
I130724
sg26
I3100224
sg27
I2282768
ssS'UMANOFF ADAM S'
p58
(dp59
g3
I111
sg4
g5
sg6
I53122
sg7
I00
sg8
g5
sg9
S'adam.umanoff@enron.com'
p60
sg11
g5
sg12
g5
sg13
I41
sg14
g5
sg15
I18
sg16
g5
sg17
F0.0
sg18
g5
sg19
I788750
sg20
g5
sg21
I12
sg22
I0
sg23
F0.6666666666666666
sg24
g5
sg25
I288589
sg26
I1130461
sg27
g5
ssS'BLACHMAN JEREMY M'
p61
(dp62
g3
I2475
sg4
g5
sg6
I84208
sg7
I00
sg8
g5
sg9
S'jeremy.blachman@enron.com'
p63
sg11
I831809
sg12
g5
sg13
I2326
sg14
g5
sg15
I14
sg16
I272
sg17
F0.0008080808080808081
sg18
g5
sg19
I850000
sg20
I954354
sg21
I25
sg22
I2
sg23
F1.7857142857142858
sg24
I189041
sg25
I248546
sg26
I2014835
sg27
I765313
ssS'SUNDE MARTIN'
p64
(dp65
g3
I2647
sg4
g5
sg6
g5
sg7
I00
sg8
g5
sg9
S'marty.sunde@enron.com'
p66
sg11
I476451
sg12
g5
sg13
I2565
sg14
g5
sg15
I38
sg16
I111122
sg17
F0.004911220249338874
sg18
g5
sg19
I700000
sg20
I698920
sg21
I37
sg22
I13
sg23
F0.9736842105263158
sg24
I698920
sg25
I257486
sg26
I1545059
sg27
g5
ssS'GIBBS DANA R'
p67
(dp68
g3
I169
sg4
I504610
sg6
g5
sg7
I00
sg8
g5
sg9
S'dana.gibbs@enron.com'
p69
sg11
I461912
sg12
g5
sg13
I23
sg14
g5
sg15
I12
sg16
g5
sg17
F0.0
sg18
g5
sg19
g5
sg20
I2218275
sg21
I0
sg22
I0
sg23
F0.0
sg24
g5
sg25
g5
sg26
I966522
sg27
I2218275
ssS'LOWRY CHARLES P'
p70
(dp71
g3
g5
sg4
g5
sg6
g5
sg7
I00
sg8
g5
sg9
g5
sg11
g5
sg12
I-153686
sg13
g5
sg14
g5
sg15
g5
sg16
g5
sg17
g30
sg18
g5
sg19
g5
sg20
I372205
sg21
g5
sg22
g5
sg23
g30
sg24
I153686
sg25
g5
sg26
g5
sg27
I372205
ssS'COLWELL WESLEY'
p72
(dp73
g3
I1758
sg4
I27610
sg6
I16514
sg7
I01
sg8
I-144062
sg9
S'wes.colwell@enron.com'
p74
sg11
g5
sg12
g5
sg13
I1132
sg14
g5
sg15
I40
sg16
I101740
sg17
F0.006257110352673493
sg18
g5
sg19
I1200000
sg20
I698242
sg21
I240
sg22
I11
sg23
F6.0
sg24
I698242
sg25
I288542
sg26
I1490344
sg27
g5
ssS'MULLER MARK S'
p75
(dp76
g3
I136
sg4
I842924
sg6
g5
sg7
I00
sg8
I-719000
sg9
S's..muller@enron.com'
p77
sg11
I1725545
sg12
g5
sg13
I114
sg14
g5
sg15
I16
sg16
I947
sg17
F0.0
sg18
g5
sg19
I1100000
sg20
I1416848
sg21
I12
sg22
I0
sg23
F0.75
sg24
I360528
sg25
I251654
sg26
I3202070
sg27
I1056320
ssS'JACKSON CHARLENE R'
p78
(dp79
g3
I258
sg4
g5
sg6
I10181
sg7
I00
sg8
g5
sg9
S'charlene.jackson@enron.com'
p80
sg11
g5
sg12
g5
sg13
I117
sg14
g5
sg15
I56
sg16
I2435
sg17
F0.07364341085271318
sg18
g5
sg19
I250000
sg20
I725735
sg21
I25
sg22
I19
sg23
F0.44642857142857145
sg24
I540672
sg25
I288558
sg26
I551174
sg27
I185063
ssS'WESTFAHL RICHARD K'
p81
(dp82
g3
g5
sg4
g5
sg6
I51870
sg7
I00
sg8
I-10800
sg9
S'dick.westfahl@enron.com'
p83
sg11
I256191
sg12
g5
sg13
g5
sg14
g5
sg15
g5
sg16
I401130
sg17
g30
sg18
g5
sg19
g5
sg20
I384930
sg21
g5
sg22
g5
sg23
g30
sg24
I384930
sg25
I63744
sg26
I762135
sg27
g5
ssS'WALTERS GARETH W'
p84
(dp85
g3
g5
sg4
I53625
sg6
I33785
sg7
I00
sg8
g5
sg9
g5
sg11
g5
sg12
g5
sg13
g5
sg14
g5
sg15
g5
sg16
g5
sg17
g30
sg18
g5
sg19
g5
sg20
I1030329
sg21
g5
sg22
g5
sg23
g30
sg24
g5
sg25
g5
sg26
I87410
sg27
I1030329
ssS'WALLS JR ROBERT H'
p86
(dp87
g3
I671
sg4
g5
sg6
I50936
sg7
I00
sg8
g5
sg9
S'rob.walls@enron.com'
p88
sg11
I540751
sg12
g5
sg13
I215
sg14
g5
sg15
I146
sg16
I2
sg17
F0.0
sg18
g5
sg19
I850000
sg20
I5898997
sg21
I17
sg22
I0
sg23
F0.11643835616438356
sg24
I1552453
sg25
I357091
sg26
I1798780
sg27
I4346544
ssS'KITCHEN LOUISE'
p89
(dp90
g3
I8305
sg4
g5
sg6
I5774
sg7
I00
sg8
g5
sg9
S'louise.kitchen@enron.com'
p91
sg11
g5
sg12
g5
sg13
I3669
sg14
g5
sg15
I1728
sg16
I93925
sg17
F0.023359422034918725
sg18
g5
sg19
I3100000
sg20
I547143
sg21
I251
sg22
I194
sg23
F0.14525462962962962
sg24
I466101
sg25
I271442
sg26
I3471141
sg27
I81042
ssS'CHAN RONNIE'
p92
(dp93
g3
g5
sg4
g5
sg6
g5
sg7
I00
sg8
I-98784
sg9
g5
sg11
g5
sg12
I-32460
sg13
g5
sg14
g5
sg15
g5
sg16
g5
sg17
g30
sg18
I98784
sg19
g5
sg20
g5
sg21
g5
sg22
g5
sg23
g30
sg24
I32460
sg25
g5
sg26
g5
sg27
g5
ssS'BELFER ROBERT'
p94
(dp95
g3
g5
sg4
I-102500
sg6
g5
sg7
I00
sg8
g5
sg9
g5
sg11
g5
sg12
I44093
sg13
g5
sg14
g5
sg15
g5
sg16
g5
sg17
g30
sg18
I3285
sg19
g5
sg20
I-44093
sg21
g5
sg22
g5
sg23
g30
sg24
g5
sg25
g5
sg26
I102500
sg27
I3285
ssS'SHANKMAN JEFFREY A'
p96
(dp97
g3
I3221
sg4
g5
sg6
I178979
sg7
I00
sg8
g5
sg9
S'jeffrey.shankman@enron.com'
p98
sg11
I554422
sg12
g5
sg13
I1730
sg14
g5
sg15
I2681
sg16
I1191
sg17
F0.025768394908413535
sg18
g5
sg19
I2000000
sg20
I2072035
sg21
I94
sg22
I83
sg23
F0.0350615441999254
sg24
I630137
sg25
I304110
sg26
I3038702
sg27
I1441898
ssS'WODRASKA JOHN'
p99
(dp100
g3
g5
sg4
g5
sg6
g5
sg7
I00
sg8
g5
sg9
S'john.wodraska@enron.com'
p101
sg11
g5
sg12
g5
sg13
g5
sg14
g5
sg15
g5
sg16
I189583
sg17
g30
sg18
g5
sg19
g5
sg20
g5
sg21
g5
sg22
g5
sg23
g30
sg24
g5
sg25
g5
sg26
I189583
sg27
g5
ssS'BERGSIEKER RICHARD P'
p102
(dp103
g3
I383
sg4
g5
sg6
I59175
sg7
I00
sg8
I-485813
sg9
S'rick.bergsieker@enron.com'
p104
sg11
I180250
sg12
g5
sg13
I233
sg14
g5
sg15
I59
sg16
I427316
sg17
F0.0
sg18
g5
sg19
I250000
sg20
I659249
sg21
I4
sg22
I0
sg23
F0.06779661016949153
sg24
I659249
sg25
I187922
sg26
I618850
sg27
g5
ssS'URQUHART JOHN A'
p105
(dp106
g3
g5
sg4
g5
sg6
I228656
sg7
I00
sg8
I-36666
sg9
g5
sg11
g5
sg12
g5
sg13
g5
sg14
g5
sg15
g5
sg16
g5
sg17
g30
sg18
I36666
sg19
g5
sg20
g5
sg21
g5
sg22
g5
sg23
g30
sg24
g5
sg25
g5
sg26
I228656
sg27
g5
ssS'BIBI PHILIPPE A'
p107
(dp108
g3
I1607
sg4
g5
sg6
I38559
sg7
I00
sg8
g5
sg9
S'philippe.bibi@enron.com'
p109
sg11
I369721
sg12
g5
sg13
I1336
sg14
g5
sg15
I40
sg16
I425688
sg17
F0.004978220286247666
sg18
g5
sg19
I1000000
sg20
I1843816
sg21
I23
sg22
I8
sg23
F0.575
sg24
I378082
sg25
I213625
sg26
I2047593
sg27
I1465734
ssS'RIEKER PAULA H'
p110
(dp111
g3
I1328
sg4
I214678
sg6
I33271
sg7
I01
sg8
I-100000
sg9
S'paula.rieker@enron.com'
p112
sg11
g5
sg12
g5
sg13
I1258
sg14
g5
sg15
I82
sg16
I1950
sg17
F0.03614457831325301
sg18
g5
sg19
I700000
sg20
I1918887
sg21
I35
sg22
I48
sg23
F0.4268292682926829
sg24
I283649
sg25
I249201
sg26
I1099100
sg27
I1635238
ssS'WHALEY DAVID A'
p113
(dp114
g3
g5
sg4
g5
sg6
g5
sg7
I00
sg8
g5
sg9
g5
sg11
g5
sg12
g5
sg13
g5
sg14
g5
sg15
g5
sg16
g5
sg17
g30
sg18
g5
sg19
g5
sg20
I98718
sg21
g5
sg22
g5
sg23
g30
sg24
g5
sg25
g5
sg26
g5
sg27
I98718
ssS'BECK SALLY W'
p115
(dp116
g3
I7315
sg4
g5
sg6
I37172
sg7
I00
sg8
g5
sg9
S'sally.beck@enron.com'
p117
sg11
g5
sg12
g5
sg13
I2639
sg14
g5
sg15
I4343
sg16
I566
sg17
F0.052768284347231714
sg18
g5
sg19
I700000
sg20
I126027
sg21
I144
sg22
I386
sg23
F0.033156804052498275
sg24
I126027
sg25
I231330
sg26
I969068
sg27
g5
ssS'HAUG DAVID L'
p118
(dp119
g3
I573
sg4
g5
sg6
I475
sg7
I00
sg8
g5
sg9
S'david.haug@enron.com'
p120
sg11
g5
sg12
g5
sg13
I471
sg14
g5
sg15
I19
sg16
g5
sg17
F0.012216404886561954
sg18
g5
sg19
g5
sg20
I2217299
sg21
I4
sg22
I7
sg23
F0.21052631578947367
sg24
I2217299
sg25
g5
sg26
I475
sg27
g5
ssS'ECHOLS JOHN B'
p121
(dp122
g3
g5
sg4
g5
sg6
I21530
sg7
I00
sg8
g5
sg9
S'john.echols@enron.com'
p123
sg11
I2234774
sg12
g5
sg13
g5
sg14
g5
sg15
g5
sg16
I53775
sg17
g30
sg18
g5
sg19
I200000
sg20
I1008941
sg21
g5
sg22
g5
sg23
g30
sg24
I407503
sg25
I182245
sg26
I2692324
sg27
I601438
ssS'MENDELSOHN JOHN'
p124
(dp125
g3
g5
sg4
g5
sg6
I148
sg7
I00
sg8
I-103750
sg9
g5
sg11
g5
sg12
g5
sg13
g5
sg14
g5
sg15
g5
sg16
g5
sg17
g30
sg18
I103750
sg19
g5
sg20
g5
sg21
g5
sg22
g5
sg23
g30
sg24
g5
sg25
g5
sg26
I148
sg27
g5
ssS'HICKERSON GARY J'
p126
(dp127
g3
I1320
sg4
g5
sg6
I98849
sg7
I00
sg8
g5
sg9
S'gary.hickerson@enron.com'
p128
sg11
I69223
sg12
g5
sg13
I900
sg14
g5
sg15
I27
sg16
I1936
sg17
F0.0007575757575757576
sg18
g5
sg19
I1700000
sg20
I441096
sg21
I40
sg22
I1
sg23
F1.4814814814814814
sg24
I441096
sg25
I211788
sg26
I2081796
sg27
g5
ssS'CLINE KENNETH W'
p129
(dp130
g3
g5
sg4
g5
sg6
g5
sg7
I00
sg8
g5
sg9
g5
sg11
g5
sg12
I-472568
sg13
g5
sg14
g5
sg15
g5
sg16
g5
sg17
g30
sg18
g5
sg19
g5
sg20
I189518
sg21
g5
sg22
g5
sg23
g30
sg24
I662086
sg25
g5
sg26
g5
sg27
g5
ssS'LEWIS RICHARD'
p131
(dp132
g3
I952
sg4
g5
sg6
g5
sg7
I00
sg8
g5
sg9
S'richard.lewis@enron.com'
p133
sg11
g5
sg12
g5
sg13
I739
sg14
g5
sg15
I26
sg16
g5
sg17
F0.0
sg18
g5
sg19
g5
sg20
I850477
sg21
I10
sg22
I0
sg23
F0.38461538461538464
sg24
g5
sg25
g5
sg26
g5
sg27
I850477
ssS'HAYES ROBERT E'
p134
(dp135
g3
I504
sg4
I7961
sg6
g5
sg7
I00
sg8
g5
sg9
S'robert.hayes@enron.com'
p136
sg11
g5
sg12
g5
sg13
I50
sg14
g5
sg15
I12
sg16
g5
sg17
F0.0
sg18
g5
sg19
g5
sg20
I151418
sg21
I16
sg22
I0
sg23
F1.3333333333333333
sg24
I151418
sg25
g5
sg26
I7961
sg27
g5
ssS'MCCARTY DANNY J'
p137
(dp138
g3
I1433
sg4
g5
sg6
g5
sg7
I00
sg8
g5
sg9
S'danny.mccarty@enron.com'
p139
sg11
g5
sg12
g5
sg13
I508
sg14
g5
sg15
I215
sg16
g5
sg17
F0.0013956734124214933
sg18
g5
sg19
g5
sg20
I758931
sg21
I25
sg22
I2
sg23
F0.11627906976744186
sg24
I94556
sg25
g5
sg26
g5
sg27
I664375
ssS'KOPPER MICHAEL J'
p140
(dp141
g3
g5
sg4
g5
sg6
I118134
sg7
I01
sg8
g5
sg9
S'michael.kopper@enron.com'
p142
sg11
I602671
sg12
g5
sg13
g5
sg14
g5
sg15
g5
sg16
I907502
sg17
g30
sg18
g5
sg19
I800000
sg20
I985032
sg21
g5
sg22
g5
sg23
g30
sg24
I985032
sg25
I224305
sg26
I2652612
sg27
g5
ssS'LEFF DANIEL P'
p143
(dp144
g3
I2822
sg4
g5
sg6
g5
sg7
I00
sg8
g5
sg9
S'dan.leff@enron.com'
p145
sg11
I1387399
sg12
g5
sg13
I2672
sg14
g5
sg15
I63
sg16
I3083
sg17
F0.004961020552799433
sg18
g5
sg19
I1000000
sg20
I360528
sg21
I67
sg22
I14
sg23
F1.0634920634920635
sg24
I360528
sg25
I273746
sg26
I2664228
sg27
g5
ssS'LAVORATO JOHN J'
p146
(dp147
g3
I7259
sg4
g5
sg6
I49537
sg7
I00
sg8
g5
sg9
S'john.lavorato@enron.com'
p148
sg11
I2035380
sg12
g5
sg13
I3962
sg14
g5
sg15
I2585
sg16
I1552
sg17
F0.05661936905909905
sg18
g5
sg19
I8000000
sg20
I5167144
sg21
I528
sg22
I411
sg23
F0.20425531914893616
sg24
I1008149
sg25
I339288
sg26
I10425757
sg27
I4158995
ssS'BERBERIAN DAVID'
p149
(dp150
g3
g5
sg4
g5
sg6
I11892
sg7
I00
sg8
g5
sg9
S'david.berberian@enron.com'
p151
sg11
g5
sg12
g5
sg13
g5
sg14
g5
sg15
g5
sg16
g5
sg17
g30
sg18
g5
sg19
g5
sg20
I2493616
sg21
g5
sg22
g5
sg23
g30
sg24
I869220
sg25
I216582
sg26
I228474
sg27
I1624396
ssS'DETMERING TIMOTHY J'
p152
(dp153
g3
g5
sg4
I875307
sg6
I52255
sg7
I00
sg8
I-775241
sg9
S'timothy.detmering@enron.com'
p154
sg11
I415657
sg12
I-315068
sg13
g5
sg14
g5
sg15
g5
sg16
I1105
sg17
g30
sg18
g5
sg19
I425000
sg20
I2027865
sg21
g5
sg22
g5
sg23
g30
sg24
I315068
sg25
I210500
sg26
I1204583
sg27
I2027865
ssS'WAKEHAM JOHN'
p155
(dp156
g3
g5
sg4
g5
sg6
I103773
sg7
I00
sg8
g5
sg9
g5
sg11
g5
sg12
g5
sg13
g5
sg14
g5
sg15
g5
sg16
g5
sg17
g30
sg18
I109298
sg19
g5
sg20
g5
sg21
g5
sg22
g5
sg23
g30
sg24
g5
sg25
g5
sg26
I213071
sg27
g5
ssS'POWERS WILLIAM'
p157
(dp158
g3
I653
sg4
g5
sg6
g5
sg7
I00
sg8
I-17500
sg9
S'ken.powers@enron.com'
p159
sg11
g5
sg12
g5
sg13
I12
sg14
g5
sg15
I26
sg16
g5
sg17
F0.0
sg18
I17500
sg19
g5
sg20
g5
sg21
I0
sg22
I0
sg23
F0.0
sg24
g5
sg25
g5
sg26
g5
sg27
g5
ssS'GOLD JOSEPH'
p160
(dp161
g3
g5
sg4
g5
sg6
g5
sg7
I00
sg8
g5
sg9
S'joe.gold@enron.com'
p162
sg11
I304805
sg12
g5
sg13
g5
sg14
g5
sg15
g5
sg16
I819288
sg17
g30
sg18
g5
sg19
I750000
sg20
I877611
sg21
g5
sg22
g5
sg23
g30
sg24
I441096
sg25
I272880
sg26
I2146973
sg27
I436515
ssS'BANNANTINE JAMES M'
p163
(dp164
g3
I566
sg4
g5
sg6
I56301
sg7
I00
sg8
I-5104
sg9
S'james.bannantine@enron.com'
p165
sg11
g5
sg12
I-560222
sg13
I465
sg14
g5
sg15
I29
sg16
I864523
sg17
F0.0
sg18
g5
sg19
g5
sg20
I5243487
sg21
I39
sg22
I0
sg23
F1.3448275862068966
sg24
I1757552
sg25
I477
sg26
I916197
sg27
I4046157
ssS'DUNCAN JOHN H'
p166
(dp167
g3
g5
sg4
g5
sg6
g5
sg7
I00
sg8
I-25000
sg9
g5
sg11
g5
sg12
g5
sg13
g5
sg14
g5
sg15
g5
sg16
g5
sg17
g30
sg18
I102492
sg19
g5
sg20
I371750
sg21
g5
sg22
g5
sg23
g30
sg24
g5
sg25
g5
sg26
I77492
sg27
I371750
ssS'SHAPIRO RICHARD S'
p168
(dp169
g3
I15149
sg4
g5
sg6
I137767
sg7
I00
sg8
g5
sg9
S'richard.shapiro@enron.com'
p170
sg11
g5
sg12
g5
sg13
I4527
sg14
g5
sg15
I1215
sg16
I705
sg17
F0.004290712258234867
sg18
g5
sg19
I650000
sg20
I987001
sg21
I74
sg22
I65
sg23
F0.060905349794238686
sg24
I379164
sg25
I269076
sg26
I1057548
sg27
I607837
ssS'SHERRIFF JOHN R'
p171
(dp172
g3
I3187
sg4
g5
sg6
g5
sg7
I00
sg8
g5
sg9
S'john.sherriff@enron.com'
p173
sg11
I554422
sg12
g5
sg13
I2103
sg14
g5
sg15
I92
sg16
I1852186
sg17
F0.0072168183244430495
sg18
g5
sg19
I1500000
sg20
I3128982
sg21
I28
sg22
I23
sg23
F0.30434782608695654
sg24
I1293424
sg25
I428780
sg26
I4335388
sg27
I1835558
ssS'SHELBY REX'
p174
(dp175
g3
I225
sg4
g5
sg6
I22884
sg7
I01
sg8
I-4167
sg9
S'rex.shelby@enron.com'
p176
sg11
g5
sg12
g5
sg13
I91
sg14
g5
sg15
I39
sg16
I1573324
sg17
F0.06222222222222222
sg18
g5
sg19
I200000
sg20
I2493616
sg21
I13
sg22
I14
sg23
F0.3333333333333333
sg24
I869220
sg25
I211844
sg26
I2003885
sg27
I1624396
ssS'LEMAISTRE CHARLES'
p177
(dp178
g3
g5
sg4
g5
sg6
g5
sg7
I00
sg8
I-25000
sg9
g5
sg11
g5
sg12
g5
sg13
g5
sg14
g5
sg15
g5
sg16
g5
sg17
g30
sg18
I112492
sg19
g5
sg20
I412878
sg21
g5
sg22
g5
sg23
g30
sg24
g5
sg25
g5
sg26
I87492
sg27
I412878
ssS'DEFFNER JOSEPH M'
p179
(dp180
g3
I714
sg4
g5
sg6
I41626
sg7
I00
sg8
g5
sg9
S'joseph.deffner@enron.com'
p181
sg11
I335349
sg12
g5
sg13
I552
sg14
g5
sg15
I74
sg16
I25553
sg17
F0.0056022408963585435
sg18
g5
sg19
I600000
sg20
I159211
sg21
I115
sg22
I4
sg23
F1.554054054054054
sg24
I141833
sg25
I206121
sg26
I1208649
sg27
I17378
ssS'KISHKILL JOSEPH G'
p182
(dp183
g3
g5
sg4
g5
sg6
I116335
sg7
I00
sg8
I-51042
sg9
S'joe.kishkill@enron.com'
p184
sg11
g5
sg12
g5
sg13
g5
sg14
g5
sg15
g5
sg16
I465357
sg17
g30
sg18
g5
sg19
g5
sg20
I1034346
sg21
g5
sg22
g5
sg23
g30
sg24
I1034346
sg25
I174246
sg26
I704896
sg27
g5
ssS'WHALLEY LAWRENCE G'
p185
(dp186
g3
I6019
sg4
g5
sg6
I57838
sg7
I00
sg8
g5
sg9
S'greg.whalley@enron.com'
p187
sg11
I808346
sg12
g5
sg13
I3920
sg14
g5
sg15
I556
sg16
I301026
sg17
F0.003987373317826882
sg18
g5
sg19
I3000000
sg20
I6079137
sg21
I186
sg22
I24
sg23
F0.3345323741007194
sg24
I2796177
sg25
I510364
sg26
I4677574
sg27
I3282960
ssS'MCCONNELL MICHAEL S'
p188
(dp189
g3
I3329
sg4
g5
sg6
I81364
sg7
I00
sg8
g5
sg9
S'mike.mcconnell@enron.com'
p190
sg11
I554422
sg12
g5
sg13
I2189
sg14
g5
sg15
I2742
sg16
I540
sg17
F0.058275758486031844
sg18
g5
sg19
I1100000
sg20
I3101279
sg21
I92
sg22
I194
sg23
F0.03355215171407731
sg24
I1478269
sg25
I365038
sg26
I2101364
sg27
I1623010
ssS'PIRO JIM'
p191
(dp192
g3
I58
sg4
g5
sg6
g5
sg7
I00
sg8
g5
sg9
S'jim.piro@enron.com'
p193
sg11
g5
sg12
g5
sg13
I3
sg14
g5
sg15
I16
sg16
g5
sg17
F0.017241379310344827
sg18
g5
sg19
g5
sg20
I47304
sg21
I0
sg22
I1
sg23
F0.0
sg24
I47304
sg25
g5
sg26
g5
sg27
g5
ssS'DELAINEY DAVID W'
p194
(dp195
g3
I3093
sg4
g5
sg6
I86174
sg7
I01
sg8
g5
sg9
S'david.delainey@enron.com'
p196
sg11
I1294981
sg12
g5
sg13
I2097
sg14
g5
sg15
I3069
sg16
I1661
sg17
F0.19689621726479145
sg18
g5
sg19
I3000000
sg20
I3614261
sg21
I66
sg22
I609
sg23
F0.021505376344086023
sg24
I1323148
sg25
I365163
sg26
I4747979
sg27
I2291113
ssS'SULLIVAN-SHAKLOVITZ COLLEEN'
p197
(dp198
g3
g5
sg4
I181993
sg6
g5
sg7
I00
sg8
g5
sg9
g5
sg11
I554422
sg12
g5
sg13
g5
sg14
g5
sg15
g5
sg16
I162
sg17
g30
sg18
g5
sg19
I100000
sg20
I1362375
sg21
g5
sg22
g5
sg23
g30
sg24
g5
sg25
I162779
sg26
I999356
sg27
I1362375
ssS'WROBEL BRUCE'
p199
(dp200
g3
g5
sg4
g5
sg6
g5
sg7
I00
sg8
g5
sg9
g5
sg11
g5
sg12
g5
sg13
g5
sg14
g5
sg15
g5
sg16
g5
sg17
g30
sg18
g5
sg19
g5
sg20
I139130
sg21
g5
sg22
g5
sg23
g30
sg24
g5
sg25
g5
sg26
g5
sg27
I139130
ssS'LINDHOLM TOD A'
p201
(dp202
g3
g5
sg4
I204075
sg6
I57727
sg7
I00
sg8
g5
sg9
S'tod.lindholm@enron.com'
p203
sg11
I175000
sg12
g5
sg13
g5
sg14
g5
sg15
g5
sg16
I2630
sg17
g30
sg18
g5
sg19
I200000
sg20
I3064208
sg21
g5
sg22
g5
sg23
g30
sg24
I514847
sg25
I236457
sg26
I875889
sg27
I2549361
ssS'MEYER JEROME J'
p204
(dp205
g3
g5
sg4
g5
sg6
I2151
sg7
I00
sg8
I-38346
sg9
g5
sg11
g5
sg12
g5
sg13
g5
sg14
g5
sg15
g5
sg16
g5
sg17
g30
sg18
I38346
sg19
g5
sg20
g5
sg21
g5
sg22
g5
sg23
g30
sg24
g5
sg25
g5
sg26
I2151
sg27
g5
ssS'LAY KENNETH L'
p206
(dp207
g3
I4273
sg4
I202911
sg6
I99832
sg7
I01
sg8
I-300000
sg9
S'kenneth.lay@enron.com'
p208
sg11
I3600000
sg12
g5
sg13
I2411
sg14
I81525000
sg15
I36
sg16
I10359729
sg17
F0.003744441844137608
sg18
g5
sg19
I7000000
sg20
I49110078
sg21
I123
sg22
I16
sg23
F3.4166666666666665
sg24
I14761694
sg25
I1072321
sg26
I103559793
sg27
I34348384
ssS'BUTTS ROBERT H'
p209
(dp210
g3
g5
sg4
g5
sg6
I9410
sg7
I00
sg8
I-75000
sg9
S'bob.butts@enron.com'
p211
sg11
I175000
sg12
g5
sg13
g5
sg14
g5
sg15
g5
sg16
I150656
sg17
g30
sg18
g5
sg19
I750000
sg20
I417619
sg21
g5
sg22
g5
sg23
g30
sg24
I417619
sg25
I261516
sg26
I1271582
sg27
g5
ssS'OLSON CINDY K'
p212
(dp213
g3
I1184
sg4
I77716
sg6
I63791
sg7
I00
sg8
g5
sg9
S'cindy.olson@enron.com'
p214
sg11
I100000
sg12
g5
sg13
I856
sg14
g5
sg15
I52
sg16
I972
sg17
F0.01266891891891892
sg18
g5
sg19
I750000
sg20
I2606763
sg21
I20
sg22
I15
sg23
F0.38461538461538464
sg24
I969729
sg25
I329078
sg26
I1321557
sg27
I1637034
ssS'MCDONALD REBECCA'
p215
(dp216
g3
I894
sg4
g5
sg6
g5
sg7
I00
sg8
g5
sg9
S'rebecca.mcdonald@enron.com'
p217
sg11
g5
sg12
g5
sg13
I720
sg14
g5
sg15
I13
sg16
g5
sg17
F0.0011185682326621924
sg18
g5
sg19
g5
sg20
I1691366
sg21
I54
sg22
I1
sg23
F4.153846153846154
sg24
I934065
sg25
g5
sg26
g5
sg27
I757301
ssS'CUMBERLAND MICHAEL S'
p218
(dp219
g3
g5
sg4
g5
sg6
I22344
sg7
I00
sg8
g5
sg9
g5
sg11
I275000
sg12
g5
sg13
g5
sg14
g5
sg15
g5
sg16
I713
sg17
g30
sg18
g5
sg19
I325000
sg20
I207940
sg21
g5
sg22
g5
sg23
g30
sg24
I207940
sg25
I184899
sg26
I807956
sg27
g5
ssS'GAHN ROBERT S'
p220
(dp221
g3
g5
sg4
I73122
sg6
I50080
sg7
I00
sg8
I-1042
sg9
g5
sg11
g5
sg12
g5
sg13
g5
sg14
g5
sg15
g5
sg16
I76547
sg17
g30
sg18
g5
sg19
I509870
sg20
I318607
sg21
g5
sg22
g5
sg23
g30
sg24
I235370
sg25
I192008
sg26
I900585
sg27
I83237
ssS'MCCLELLAN GEORGE'
p222
(dp223
g3
I1744
sg4
g5
sg6
I228763
sg7
I00
sg8
I-125000
sg9
S'george.mcclellan@enron.com'
p224
sg11
g5
sg12
g5
sg13
I1469
sg14
g5
sg15
I49
sg16
I51587
sg17
F0.0
sg18
g5
sg19
I900000
sg20
I947861
sg21
I52
sg22
I0
sg23
F1.0612244897959184
sg24
I441096
sg25
I263413
sg26
I1318763
sg27
I506765
ssS'HERMANN ROBERT J'
p225
(dp226
g3
g5
sg4
g5
sg6
I48357
sg7
I00
sg8
I-280000
sg9
S'robert.hermann@enron.com'
p227
sg11
I150000
sg12
g5
sg13
g5
sg14
g5
sg15
g5
sg16
I416441
sg17
g30
sg18
g5
sg19
I700000
sg20
I668132
sg21
g5
sg22
g5
sg23
g30
sg24
I480632
sg25
I262663
sg26
I1297461
sg27
I187500
ssS'SCRIMSHAW MATTHEW'
p228
(dp229
g3
g5
sg4
g5
sg6
g5
sg7
I00
sg8
g5
sg9
S'matthew.scrimshaw@enron.com'
p230
sg11
g5
sg12
g5
sg13
g5
sg14
g5
sg15
g5
sg16
g5
sg17
g30
sg18
g5
sg19
g5
sg20
I759557
sg21
g5
sg22
g5
sg23
g30
sg24
g5
sg25
g5
sg26
g5
sg27
I759557
ssS'GATHMANN WILLIAM D'
p231
(dp232
g3
g5
sg4
g5
sg6
g5
sg7
I00
sg8
g5
sg9
g5
sg11
g5
sg12
I-72419
sg13
g5
sg14
g5
sg15
g5
sg16
g5
sg17
g30
sg18
g5
sg19
g5
sg20
I1945360
sg21
g5
sg22
g5
sg23
g30
sg24
I264013
sg25
g5
sg26
g5
sg27
I1753766
ssS'HAEDICKE MARK E'
p233
(dp234
g3
I4009
sg4
I2157527
sg6
I76169
sg7
I00
sg8
I-934484
sg9
S'mark.haedicke@enron.com'
p235
sg11
I983346
sg12
I-329825
sg13
I1847
sg14
g5
sg15
I1941
sg16
I52382
sg17
F0.015215764529807932
sg18
g5
sg19
I1150000
sg20
I803094
sg21
I180
sg22
I61
sg23
F0.09273570324574962
sg24
I524169
sg25
I374125
sg26
I3859065
sg27
I608750
ssS'BOWEN JR RAYMOND M'
p236
(dp237
g3
I1858
sg4
g5
sg6
I65907
sg7
I01
sg8
I-833
sg9
S'raymond.bowen@enron.com'
p238
sg11
I974293
sg12
g5
sg13
I1593
sg14
g5
sg15
I27
sg16
I1621
sg17
F0.008073196986006458
sg18
g5
sg19
I1350000
sg20
I252055
sg21
I140
sg22
I15
sg23
F5.185185185185185
sg24
I252055
sg25
I278601
sg26
I2669589
sg27
g5
ssS'GILLIS JOHN'
p239
(dp240
g3
g5
sg4
g5
sg6
g5
sg7
I00
sg8
g5
sg9
g5
sg11
g5
sg12
g5
sg13
g5
sg14
g5
sg15
g5
sg16
g5
sg17
g30
sg18
g5
sg19
g5
sg20
I85641
sg21
g5
sg22
g5
sg23
g30
sg24
I75838
sg25
g5
sg26
g5
sg27
I9803
ssS'FITZGERALD JAY L'
p241
(dp242
g3
I936
sg4
g5
sg6
I23870
sg7
I00
sg8
g5
sg9
S'jay.fitzgerald@enron.com'
p243
sg11
I556416
sg12
g5
sg13
I723
sg14
g5
sg15
I16
sg16
I285414
sg17
F0.008547008547008548
sg18
g5
sg19
I350000
sg20
I1621236
sg21
I1
sg22
I8
sg23
F0.0625
sg24
I956775
sg25
I199157
sg26
I1414857
sg27
I664461
ssS'MORAN MICHAEL P'
p244
(dp245
g3
I672
sg4
g5
sg6
g5
sg7
I00
sg8
g5
sg9
S'michael.moran@enron.com'
p246
sg11
g5
sg12
g5
sg13
I127
sg14
g5
sg15
I19
sg16
g5
sg17
F0.0
sg18
g5
sg19
g5
sg20
I221141
sg21
I0
sg22
I0
sg23
F0.0
sg24
I161602
sg25
g5
sg26
g5
sg27
I59539
ssS'REDMOND BRIAN L'
p247
(dp248
g3
I1671
sg4
g5
sg6
I14689
sg7
I00
sg8
g5
sg9
S'brian.redmond@enron.com'
p249
sg11
g5
sg12
g5
sg13
I1063
sg14
g5
sg15
I221
sg16
g5
sg17
F0.029323758228605626
sg18
g5
sg19
g5
sg20
I7890324
sg21
I204
sg22
I49
sg23
F0.9230769230769231
sg24
I381285
sg25
I96840
sg26
I111529
sg27
I7509039
ssS'BAZELIDES PHILIP J'
p250
(dp251
g3
g5
sg4
I684694
sg6
g5
sg7
I00
sg8
g5
sg9
g5
sg11
I93750
sg12
g5
sg13
g5
sg14
g5
sg15
g5
sg16
I874
sg17
g30
sg18
g5
sg19
g5
sg20
I1599641
sg21
g5
sg22
g5
sg23
g30
sg24
g5
sg25
I80818
sg26
I860136
sg27
I1599641
ssS'BELDEN TIMOTHY N'
p252
(dp253
g3
I7991
sg4
I2144013
sg6
I17355
sg7
I01
sg8
I-2334434
sg9
S'tim.belden@enron.com'
p254
sg11
g5
sg12
g5
sg13
I5521
sg14
g5
sg15
I484
sg16
I210698
sg17
F0.013515204605180828
sg18
g5
sg19
I5249999
sg20
I1110705
sg21
I228
sg22
I108
sg23
F0.47107438016528924
sg24
I157569
sg25
I213999
sg26
I5501630
sg27
I953136
ssS'DURAN WILLIAM D'
p255
(dp256
g3
I904
sg4
g5
sg6
I25785
sg7
I00
sg8
g5
sg9
S'w.duran@enron.com'
p257
sg11
I1105218
sg12
g5
sg13
I599
sg14
g5
sg15
I12
sg16
I1568
sg17
F0.00331858407079646
sg18
g5
sg19
I750000
sg20
I1640910
sg21
I106
sg22
I3
sg23
F8.833333333333334
sg24
I189041
sg25
I210692
sg26
I2093263
sg27
I1451869
ssS'THORN TERENCE H'
p258
(dp259
g3
I266
sg4
I16586
sg6
I46145
sg7
I00
sg8
g5
sg9
S'terence.thorn@enron.com'
p260
sg11
I200000
sg12
g5
sg13
I73
sg14
g5
sg15
I41
sg16
I426629
sg17
F0.0
sg18
g5
sg19
g5
sg20
I4817796
sg21
I0
sg22
I0
sg23
F0.0
sg24
I365320
sg25
I222093
sg26
I911453
sg27
I4452476
ssS'FASTOW ANDREW S'
p261
(dp262
g3
g5
sg4
g5
sg6
I55921
sg7
I01
sg8
I-1386055
sg9
S'andrew.fastow@enron.com'
p263
sg11
I1736055
sg12
g5
sg13
g5
sg14
g5
sg15
g5
sg16
I277464
sg17
g30
sg18
g5
sg19
I1300000
sg20
I1794412
sg21
g5
sg22
g5
sg23
g30
sg24
I1794412
sg25
I440698
sg26
I2424083
sg27
g5
ssS'FOY JOE'
p264
(dp265
g3
I57
sg4
I181755
sg6
g5
sg7
I00
sg8
g5
sg9
S'tracy.foy@enron.com'
p266
sg11
g5
sg12
g5
sg13
I2
sg14
g5
sg15
I13
sg16
g5
sg17
F0.0
sg18
g5
sg19
g5
sg20
I343434
sg21
I0
sg22
I0
sg23
F0.0
sg24
g5
sg25
g5
sg26
I181755
sg27
I343434
ssS'CALGER CHRISTOPHER F'
p267
(dp268
g3
I2598
sg4
g5
sg6
I35818
sg7
I01
sg8
I-262500
sg9
S'christopher.calger@enron.com'
p269
sg11
I375304
sg12
g5
sg13
I2188
sg14
g5
sg15
I144
sg16
I486
sg17
F0.00962278675904542
sg18
g5
sg19
I1250000
sg20
I126027
sg21
I199
sg22
I25
sg23
F1.3819444444444444
sg24
I126027
sg25
I240189
sg26
I1639297
sg27
g5
ssS'RICE KENNETH D'
p270
(dp271
g3
I905
sg4
g5
sg6
I46950
sg7
I01
sg8
I-3504386
sg9
S'ken.rice@enron.com'
p272
sg11
I1617011
sg12
g5
sg13
I864
sg14
g5
sg15
I18
sg16
I174839
sg17
F0.004419889502762431
sg18
g5
sg19
I1750000
sg20
I22542539
sg21
I42
sg22
I4
sg23
F2.3333333333333335
sg24
I2748364
sg25
I420636
sg26
I505050
sg27
I19794175
ssS'KAMINSKI WINCENTY J'
p273
(dp274
g3
I4607
sg4
g5
sg6
I83585
sg7
I00
sg8
g5
sg9
S'vince.kaminski@enron.com'
p275
sg11
I323466
sg12
g5
sg13
I583
sg14
g5
sg15
I14368
sg16
I4669
sg17
F0.03711742999782939
sg18
g5
sg19
I400000
sg20
I976037
sg21
I41
sg22
I171
sg23
F0.002853563474387528
sg24
I126027
sg25
I275101
sg26
I1086821
sg27
I850010
ssS'COX DAVID'
p276
(dp277
g3
I102
sg4
g5
sg6
I27861
sg7
I00
sg8
I-41250
sg9
S'chip.cox@enron.com'
p278
sg11
g5
sg12
g5
sg13
I71
sg14
g5
sg15
I33
sg16
I494
sg17
F0.0392156862745098
sg18
g5
sg19
I800000
sg20
I495633
sg21
I0
sg22
I4
sg23
F0.0
sg24
I378082
sg25
I314288
sg26
I1101393
sg27
I117551
ssS'OVERDYKE JR JERE C'
p279
(dp280
g3
g5
sg4
g5
sg6
I18834
sg7
I00
sg8
g5
sg9
S'jere.overdyke@enron.com'
p281
sg11
I135836
sg12
g5
sg13
g5
sg14
g5
sg15
g5
sg16
I176
sg17
g30
sg18
g5
sg19
g5
sg20
I7307594
sg21
g5
sg22
g5
sg23
g30
sg24
I2041016
sg25
I94941
sg26
I249787
sg27
I5266578
ssS'PEREIRA PAULO V. FERRAZ'
p282
(dp283
g3
g5
sg4
g5
sg6
I27942
sg7
I00
sg8
I-101250
sg9
g5
sg11
g5
sg12
g5
sg13
g5
sg14
g5
sg15
g5
sg16
g5
sg17
g30
sg18
I101250
sg19
g5
sg20
g5
sg21
g5
sg22
g5
sg23
g30
sg24
g5
sg25
g5
sg26
I27942
sg27
g5
ssS'STABLER FRANK'
p284
(dp285
g3
g5
sg4
g5
sg6
I16514
sg7
I00
sg8
g5
sg9
S'frank.stabler@enron.com'
p286
sg11
g5
sg12
g5
sg13
g5
sg14
g5
sg15
g5
sg16
I356071
sg17
g30
sg18
g5
sg19
I500000
sg20
I511734
sg21
g5
sg22
g5
sg23
g30
sg24
I511734
sg25
I239502
sg26
I1112087
sg27
g5
ssS'SKILLING JEFFREY K'
p287
(dp288
g3
I3627
sg4
g5
sg6
I29336
sg7
I01
sg8
g5
sg9
S'jeff.skilling@enron.com'
p289
sg11
I1920000
sg12
g5
sg13
I2042
sg14
g5
sg15
I108
sg16
I22122
sg17
F0.008271298593879239
sg18
g5
sg19
I5600000
sg20
I26093672
sg21
I88
sg22
I30
sg23
F0.8148148148148148
sg24
I6843672
sg25
I1111258
sg26
I8682716
sg27
I19250000
ssS'BLAKE JR. NORMAN P'
p290
(dp291
g3
g5
sg4
g5
sg6
I1279
sg7
I00
sg8
I-113784
sg9
g5
sg11
g5
sg12
g5
sg13
g5
sg14
g5
sg15
g5
sg16
g5
sg17
g30
sg18
I113784
sg19
g5
sg20
g5
sg21
g5
sg22
g5
sg23
g30
sg24
g5
sg25
g5
sg26
I1279
sg27
g5
ssS'SHERRICK JEFFREY B'
p292
(dp293
g3
I613
sg4
g5
sg6
g5
sg7
I00
sg8
g5
sg9
S'jeffrey.sherrick@enron.com'
p294
sg11
g5
sg12
g5
sg13
I583
sg14
g5
sg15
I25
sg16
g5
sg17
F0.02936378466557912
sg18
g5
sg19
g5
sg20
I1832468
sg21
I39
sg22
I18
sg23
F1.56
sg24
I405999
sg25
g5
sg26
g5
sg27
I1426469
ssS'PRENTICE JAMES'
p295
(dp296
g3
g5
sg4
I564348
sg6
g5
sg7
I00
sg8
g5
sg9
S'james.prentice@enron.com'
p297
sg11
g5
sg12
g5
sg13
g5
sg14
g5
sg15
g5
sg16
g5
sg17
g30
sg18
g5
sg19
g5
sg20
I1095040
sg21
g5
sg22
g5
sg23
g30
sg24
I208809
sg25
g5
sg26
I564348
sg27
I886231
ssS'GRAY RODNEY'
p298
(dp299
g3
g5
sg4
I93585
sg6
g5
sg7
I00
sg8
g5
sg9
g5
sg11
I365625
sg12
g5
sg13
g5
sg14
g5
sg15
g5
sg16
I680833
sg17
g30
sg18
g5
sg19
g5
sg20
g5
sg21
g5
sg22
g5
sg23
g30
sg24
g5
sg25
I6615
sg26
I1146658
sg27
g5
ssS'PICKERING MARK R'
p300
(dp301
g3
I898
sg4
g5
sg6
I31653
sg7
I00
sg8
g5
sg9
S'mark.pickering@enron.com'
p302
sg11
g5
sg12
g5
sg13
I728
sg14
I400000
sg15
I67
sg16
g5
sg17
F0.0
sg18
g5
sg19
I300000
sg20
I28798
sg21
I7
sg22
I0
sg23
F0.1044776119402985
sg24
g5
sg25
I655037
sg26
I1386690
sg27
I28798
ssS'NOLES JAMES L'
p303
(dp304
g3
g5
sg4
I774401
sg6
g5
sg7
I00
sg8
g5
sg9
g5
sg11
g5
sg12
I-94556
sg13
g5
sg14
g5
sg15
g5
sg16
g5
sg17
g30
sg18
g5
sg19
g5
sg20
I368705
sg21
g5
sg22
g5
sg23
g30
sg24
I463261
sg25
g5
sg26
I774401
sg27
g5
ssS'KEAN STEVEN J'
p305
(dp306
g3
I12754
sg4
g5
sg6
I41953
sg7
I00
sg8
g5
sg9
S'steven.kean@enron.com'
p307
sg11
I300000
sg12
g5
sg13
I3639
sg14
g5
sg15
I6759
sg16
I1231
sg17
F0.03034342167163243
sg18
g5
sg19
I1000000
sg20
I6153642
sg21
I140
sg22
I387
sg23
F0.020713123243083296
sg24
I4131594
sg25
I404338
sg26
I1747522
sg27
I2022048
ssS'FOWLER PEGGY'
p308
(dp309
g3
I517
sg4
g5
sg6
g5
sg7
I00
sg8
g5
sg9
S'kulvinder.fowler@enron.com'
p310
sg11
g5
sg12
g5
sg13
I10
sg14
g5
sg15
I36
sg16
g5
sg17
F0.0
sg18
g5
sg19
g5
sg20
I1884748
sg21
I0
sg22
I0
sg23
F0.0
sg24
I560170
sg25
g5
sg26
g5
sg27
I1324578
ssS'WASAFF GEORGE'
p311
(dp312
g3
I400
sg4
I831299
sg6
g5
sg7
I00
sg8
I-583325
sg9
S'george.wasaff@enron.com'
p313
sg11
I200000
sg12
g5
sg13
I337
sg14
g5
sg15
I30
sg16
I1425
sg17
F0.0175
sg18
g5
sg19
I325000
sg20
I2056427
sg21
I22
sg22
I7
sg23
F0.7333333333333333
sg24
I388167
sg25
I259996
sg26
I1034395
sg27
I1668260
ssS'WHITE JR THOMAS E'
p314
(dp315
g3
g5
sg4
g5
sg6
I81353
sg7
I00
sg8
g5
sg9
S'thomas.white@enron.com'
p316
sg11
g5
sg12
g5
sg13
g5
sg14
g5
sg15
g5
sg16
I1085463
sg17
g30
sg18
g5
sg19
I450000
sg20
I15144123
sg21
g5
sg22
g5
sg23
g30
sg24
I13847074
sg25
I317543
sg26
I1934359
sg27
I1297049
ssS'CHRISTODOULOU DIOMEDES'
p317
(dp318
g3
g5
sg4
g5
sg6
g5
sg7
I00
sg8
g5
sg9
S'diomedes.christodoulou@enron.com'
p319
sg11
g5
sg12
g5
sg13
g5
sg14
g5
sg15
g5
sg16
g5
sg17
g30
sg18
g5
sg19
g5
sg20
I6077885
sg21
g5
sg22
g5
sg23
g30
sg24
I950730
sg25
g5
sg26
g5
sg27
I5127155
ssS'ALLEN PHILLIP K'
p320
(dp321
g3
I2902
sg4
I2869717
sg6
I13868
sg7
I00
sg8
I-3081055
sg9
S'phillip.allen@enron.com'
p322
sg11
I304805
sg12
I-126027
sg13
I1407
sg14
g5
sg15
I2195
sg16
I152
sg17
F0.022398345968297727
sg18
g5
sg19
I4175000
sg20
I1729541
sg21
I47
sg22
I65
sg23
F0.0214123006833713
sg24
I126027
sg25
I201955
sg26
I4484442
sg27
I1729541
ssS'SHARP VICTORIA T'
p323
(dp324
g3
I3136
sg4
I187469
sg6
I116337
sg7
I00
sg8
g5
sg9
S'vicki.sharp@enron.com'
p325
sg11
I422158
sg12
g5
sg13
I2477
sg14
g5
sg15
I136
sg16
I2401
sg17
F0.001913265306122449
sg18
g5
sg19
I600000
sg20
I494136
sg21
I24
sg22
I6
sg23
F0.17647058823529413
sg24
I213063
sg25
I248146
sg26
I1576511
sg27
I281073
ssS'JAEDICKE ROBERT'
p326
(dp327
g3
g5
sg4
g5
sg6
g5
sg7
I00
sg8
I-25000
sg9
g5
sg11
g5
sg12
I-44093
sg13
g5
sg14
g5
sg15
g5
sg16
g5
sg17
g30
sg18
I108750
sg19
g5
sg20
I431750
sg21
g5
sg22
g5
sg23
g30
sg24
I44093
sg25
g5
sg26
I83750
sg27
I431750
ssS'WINOKUR JR. HERBERT S'
p328
(dp329
g3
g5
sg4
g5
sg6
I1413
sg7
I00
sg8
I-25000
sg9
g5
sg11
g5
sg12
g5
sg13
g5
sg14
g5
sg15
g5
sg16
g5
sg17
g30
sg18
I108579
sg19
g5
sg20
g5
sg21
g5
sg22
g5
sg23
g30
sg24
g5
sg25
g5
sg26
I84992
sg27
g5
ssS'BROWN MICHAEL'
p330
(dp331
g3
I1486
sg4
g5
sg6
I49288
sg7
I00
sg8
g5
sg9
S'michael.brown@enron.com'
p332
sg11
g5
sg12
g5
sg13
I761
sg14
g5
sg15
I41
sg16
g5
sg17
F0.0006729475100942127
sg18
g5
sg19
g5
sg20
g5
sg21
I13
sg22
I1
sg23
F0.3170731707317073
sg24
g5
sg25
g5
sg26
I49288
sg27
g5
ssS'BADUM JAMES P'
p333
(dp334
g3
g5
sg4
I178980
sg6
I3486
sg7
I00
sg8
g5
sg9
g5
sg11
g5
sg12
g5
sg13
g5
sg14
g5
sg15
g5
sg16
g5
sg17
g30
sg18
g5
sg19
g5
sg20
I257817
sg21
g5
sg22
g5
sg23
g30
sg24
g5
sg25
g5
sg26
I182466
sg27
I257817
ssS'HUGHES JAMES A'
p335
(dp336
g3
I719
sg4
g5
sg6
g5
sg7
I00
sg8
g5
sg9
S'james.hughes@enron.com'
p337
sg11
g5
sg12
g5
sg13
I589
sg14
g5
sg15
I34
sg16
g5
sg17
F0.006954102920723227
sg18
g5
sg19
g5
sg20
I1118394
sg21
I35
sg22
I5
sg23
F1.0294117647058822
sg24
I363428
sg25
g5
sg26
g5
sg27
I754966
ssS'REYNOLDS LAWRENCE'
p338
(dp339
g3
g5
sg4
I51365
sg6
I8409
sg7
I00
sg8
I-200000
sg9
g5
sg11
I156250
sg12
I-140264
sg13
g5
sg14
g5
sg15
g5
sg16
I202052
sg17
g30
sg18
g5
sg19
I100000
sg20
I4221891
sg21
g5
sg22
g5
sg23
g30
sg24
I201483
sg25
I76399
sg26
I394475
sg27
I4160672
ssS'DIMICHELE RICHARD G'
p340
(dp341
g3
g5
sg4
g5
sg6
I35812
sg7
I00
sg8
g5
sg9
S'richard.dimichele@enron.com'
p342
sg11
I694862
sg12
g5
sg13
g5
sg14
g5
sg15
g5
sg16
I374689
sg17
g30
sg18
g5
sg19
I1000000
sg20
I8317782
sg21
g5
sg22
g5
sg23
g30
sg24
I126027
sg25
I262788
sg26
I2368151
sg27
I8191755
ssS'BHATNAGAR SANJAY'
p343
(dp344
g3
I523
sg4
g5
sg6
g5
sg7
I00
sg8
g5
sg9
S'sanjay.bhatnagar@enron.com'
p345
sg11
g5
sg12
I15456290
sg13
I463
sg14
g5
sg15
I29
sg16
I137864
sg17
F0.0019120458891013384
sg18
I137864
sg19
g5
sS'total_stock_value'
p346
S'NaN'
p347
sg21
I0
sg22
I1
sg23
F0.0
sg24
I-2604490
sg25
g5
sg26
I15456290
sg27
I2604490
ssS'CARTER REBECCA C'
p348
(dp349
g3
I312
sg4
g5
sg6
g5
sg7
I00
sg8
I-159792
sg9
S'rebecca.carter@enron.com'
p350
sg11
I75000
sg12
I-307301
sg13
I196
sg14
g5
sg15
I15
sg16
I540
sg17
F0.022435897435897436
sg18
g5
sg19
I300000
sg20
g5
sg21
I29
sg22
I7
sg23
F1.9333333333333333
sg24
I307301
sg25
I261809
sg26
I477557
sg27
g5
ssS'BUCHANAN HAROLD G'
p351
(dp352
g3
I1088
sg4
g5
sg6
I600
sg7
I00
sg8
g5
sg9
S'john.buchanan@enron.com'
p353
sg11
I304805
sg12
g5
sg13
I23
sg14
g5
sg15
I125
sg16
I1215
sg17
F0.0
sg18
g5
sg19
I500000
sg20
I1014505
sg21
I0
sg22
I0
sg23
F0.0
sg24
I189041
sg25
I248017
sg26
I1054637
sg27
I825464
ssS'YEAP SOON'
p354
(dp355
g3
g5
sg4
g5
sg6
I55097
sg7
I00
sg8
g5
sg9
g5
sg11
g5
sg12
g5
sg13
g5
sg14
g5
sg15
g5
sg16
g5
sg17
g30
sg18
g5
sg19
g5
sg20
I192758
sg21
g5
sg22
g5
sg23
g30
sg24
g5
sg25
g5
sg26
I55097
sg27
I192758
ssS'MURRAY JULIA H'
p356
(dp357
g3
I2192
sg4
g5
sg6
I57580
sg7
I00
sg8
g5
sg9
S'julia.murray@enron.com'
p358
sg11
I125000
sg12
g5
sg13
I395
sg14
g5
sg15
I45
sg16
I330
sg17
F0.0009124087591240876
sg18
g5
sg19
I400000
sg20
I597461
sg21
I11
sg22
I2
sg23
F0.24444444444444444
sg24
I196983
sg25
I229284
sg26
I812194
sg27
I400478
ssS'GARLAND C KEVIN'
p359
(dp360
g3
I209
sg4
g5
sg6
I48405
sg7
I00
sg8
g5
sg9
S'kevin.garland@enron.com'
p361
sg11
I375304
sg12
g5
sg13
I178
sg14
g5
sg15
I44
sg16
I60814
sg17
F0.1291866028708134
sg18
g5
sg19
I850000
sg20
I896153
sg21
I10
sg22
I27
sg23
F0.22727272727272727
sg24
I259907
sg25
I231946
sg26
I1566469
sg27
I636246
ssS'DODSON KEITH'
p362
(dp363
g3
I176
sg4
g5
sg6
I28164
sg7
I00
sg8
g5
sg9
S'keith.dodson@enron.com'
p364
sg11
g5
sg12
g5
sg13
I114
sg14
g5
sg15
I14
sg16
I774
sg17
F0.017045454545454544
sg18
g5
sg19
I70000
sg20
g5
sg21
I10
sg22
I3
sg23
F0.7142857142857143
sg24
g5
sg25
I221003
sg26
I319941
sg27
g5
ssS'YEAGER F SCOTT'
p365
(dp366
g3
g5
sg4
g5
sg6
I53947
sg7
I01
sg8
g5
sg9
S'scott.yeager@enron.com'
p367
sg11
g5
sg12
g5
sg13
g5
sg14
g5
sg15
g5
sg16
I147950
sg17
g30
sg18
g5
sg19
g5
sg20
I11884758
sg21
g5
sg22
g5
sg23
g30
sg24
I3576206
sg25
I158403
sg26
I360300
sg27
I8308552
ssS'HIRKO JOSEPH'
p368
(dp369
g3
g5
sg4
I10259
sg6
I77978
sg7
I01
sg8
g5
sg9
S'joe.hirko@enron.com'
p370
sg11
g5
sg12
g5
sg13
g5
sg14
g5
sg15
g5
sg16
I2856
sg17
g30
sg18
g5
sg19
g5
sg20
I30766064
sg21
g5
sg22
g5
sg23
g30
sg24
g5
sg25
g5
sg26
I91093
sg27
I30766064
ssS'DIETRICH JANET R'
p371
(dp372
g3
I2572
sg4
g5
sg6
I3475
sg7
I00
sg8
g5
sg9
S'janet.dietrich@enron.com'
p373
sg11
I556416
sg12
g5
sg13
I1902
sg14
g5
sg15
I63
sg16
I473
sg17
F0.005443234836702955
sg18
g5
sg19
I600000
sg20
I1865087
sg21
I305
sg22
I14
sg23
F4.841269841269841
sg24
I315068
sg25
I250100
sg26
I1410464
sg27
I1550019
ssS'DERRICK JR. JAMES V'
p374
(dp375
g3
I2181
sg4
g5
sg6
I51124
sg7
I00
sg8
I-1284000
sg9
S'james.derrick@enron.com'
p376
sg11
I484000
sg12
I-1787380
sg13
I1401
sg14
g5
sg15
I909
sg16
I7482
sg17
F0.009170105456212746
sg18
g5
sg19
I800000
sg20
I8831913
sg21
I64
sg22
I20
sg23
F0.0704070407040704
sg24
I1787380
sg25
I492375
sg26
I550981
sg27
I8831913
ssS'FREVERT MARK A'
p377
(dp378
g3
I3275
sg4
I6426990
sg6
I86987
sg7
I00
sg8
I-3367011
sg9
S'mark.frevert@enron.com'
p379
sg11
I1617011
sg12
g5
sg13
I2979
sg14
I2000000
sg15
I21
sg16
I7427621
sg17
F0.00183206106870229
sg18
g5
sg19
I2000000
sg20
I14622185
sg21
I242
sg22
I6
sg23
F11.523809523809524
sg24
I4188667
sg25
I1060932
sg26
I17252530
sg27
I10433518
ssS'PAI LOU L'
p380
(dp381
g3
g5
sg4
g5
sg6
I32047
sg7
I00
sg8
g5
sg9
S'lou.pai@enron.com'
p382
sg11
g5
sg12
g5
sg13
g5
sg14
g5
sg15
g5
sg16
I1829457
sg17
g30
sg18
g5
sg19
I1000000
sg20
I23817930
sg21
g5
sg22
g5
sg23
g30
sg24
I8453763
sg25
I261879
sg26
I3123383
sg27
I15364167
ssS'BAY FRANKLIN R'
p383
(dp384
g3
g5
sg4
I260455
sg6
I129142
sg7
I00
sg8
I-201641
sg9
S'frank.bay@enron.com'
p385
sg11
g5
sg12
I-82782
sg13
g5
sg14
g5
sg15
g5
sg16
I69
sg17
g30
sg18
g5
sg19
I400000
sg20
I63014
sg21
g5
sg22
g5
sg23
g30
sg24
I145796
sg25
I239671
sg26
I827696
sg27
g5
ssS'HAYSLETT RODERICK J'
p386
(dp387
g3
I2649
sg4
g5
sg6
g5
sg7
I00
sg8
g5
sg9
S'rod.hayslett@enron.com'
p388
sg11
g5
sg12
g5
sg13
I571
sg14
g5
sg15
I1061
sg16
g5
sg17
F0.014345035862589657
sg18
g5
sg19
g5
sg20
I346663
sg21
I35
sg22
I38
sg23
F0.03298774740810556
sg24
I346663
sg25
g5
sg26
g5
sg27
g5
ssS'FUGH JOHN L'
p389
(dp390
g3
g5
sg4
I50591
sg6
g5
sg7
I00
sg8
g5
sg9
g5
sg11
g5
sg12
g5
sg13
g5
sg14
g5
sg15
g5
sg16
g5
sg17
g30
sg18
g5
sg19
g5
sg20
I176378
sg21
g5
sg22
g5
sg23
g30
sg24
g5
sg25
g5
sg26
I50591
sg27
I176378
ssS'FALLON JAMES B'
p391
(dp392
g3
I1755
sg4
g5
sg6
I95924
sg7
I00
sg8
g5
sg9
S'jim.fallon@enron.com'
p393
sg11
I374347
sg12
g5
sg13
I1604
sg14
g5
sg15
I75
sg16
I401481
sg17
F0.021082621082621083
sg18
g5
sg19
I2500000
sg20
I2332399
sg21
I42
sg22
I37
sg23
F0.56
sg24
I1392142
sg25
I304588
sg26
I3676340
sg27
I940257
ssS'KOENIG MARK E'
p394
(dp395
g3
I2374
sg4
g5
sg6
I127017
sg7
I01
sg8
g5
sg9
S'mark.koenig@enron.com'
p396
sg11
I300000
sg12
g5
sg13
I2271
sg14
g5
sg15
I61
sg16
I150458
sg17
F0.006318449873631003
sg18
g5
sg19
I700000
sg20
I1920055
sg21
I53
sg22
I15
sg23
F0.8688524590163934
sg24
I1248318
sg25
I309946
sg26
I1587421
sg27
I671737
ssS'SAVAGE FRANK'
p397
(dp398
g3
g5
sg4
g5
sg6
g5
sg7
I00
sg8
I-121284
sg9
g5
sg11
g5
sg12
g5
sg13
g5
sg14
g5
sg15
g5
sg16
g5
sg17
g30
sg18
I125034
sg19
g5
sg20
g5
sg21
g5
sg22
g5
sg23
g30
sg24
g5
sg25
g5
sg26
I3750
sg27
g5
ssS'IZZO LAWRENCE L'
p399
(dp400
g3
I496
sg4
g5
sg6
I28093
sg7
I00
sg8
g5
sg9
S'larry.izzo@enron.com'
p401
sg11
I312500
sg12
g5
sg13
I437
sg14
g5
sg15
I19
sg16
I1553729
sg17
F0.010080645161290322
sg18
g5
sg19
g5
sg20
I5819980
sg21
I28
sg22
I5
sg23
F1.4736842105263157
sg24
I3654808
sg25
I85274
sg26
I1979596
sg27
I2165172
ssS'TILNEY ELIZABETH A'
p402
(dp403
g3
I460
sg4
g5
sg6
g5
sg7
I00
sg8
I-575000
sg9
S'elizabeth.tilney@enron.com'
p404
sg11
I275000
sg12
g5
sg13
I379
sg14
g5
sg15
I19
sg16
I152055
sg17
F0.02391304347826087
sg18
g5
sg19
I300000
sg20
I1168042
sg21
I10
sg22
I11
sg23
F0.5263157894736842
sg24
I576792
sg25
I247338
sg26
I399393
sg27
I591250
ssS'MARTIN AMANDA K'
p405
(dp406
g3
I1522
sg4
I85430
sg6
I8211
sg7
I00
sg8
g5
sg9
S'a..martin@enron.com'
p407
sg11
I5145434
sg12
g5
sg13
I477
sg14
g5
sg15
I230
sg16
I2818454
sg17
F0.0
sg18
g5
sg19
g5
sg20
I2070306
sg21
I8
sg22
I0
sg23
F0.034782608695652174
sg24
g5
sg25
I349487
sg26
I8407016
sg27
I2070306
ssS'BUY RICHARD B'
p408
(dp409
g3
I3523
sg4
I649584
sg6
g5
sg7
I00
sg8
I-694862
sg9
S'rick.buy@enron.com'
p410
sg11
I769862
sg12
g5
sg13
I2333
sg14
g5
sg15
I1053
sg16
I400572
sg17
F0.02015327845586148
sg18
g5
sg19
I900000
sg20
I3444470
sg21
I156
sg22
I71
sg23
F0.14814814814814814
sg24
I901657
sg25
I330546
sg26
I2355702
sg27
I2542813
ssS'GRAMM WENDY L'
p411
(dp412
g3
g5
sg4
g5
sg6
g5
sg7
I00
sg8
g5
sg9
g5
sg11
g5
sg12
g5
sg13
g5
sg14
g5
sg15
g5
sg16
g5
sg17
g30
sg18
I119292
sg19
g5
sg20
g5
sg21
g5
sg22
g5
sg23
g30
sg24
g5
sg25
g5
sg26
I119292
sg27
g5
ssS'CAUSEY RICHARD A'
p413
(dp414
g3
I1892
sg4
g5
sg6
I30674
sg7
I01
sg8
I-235000
sg9
S'richard.causey@enron.com'
p415
sg11
I350000
sg12
g5
sg13
I1585
sg14
g5
sg15
I49
sg16
I307895
sg17
F0.006342494714587738
sg18
g5
sg19
I1000000
sg20
I2502063
sg21
I58
sg22
I12
sg23
F1.183673469387755
sg24
I2502063
sg25
I415189
sg26
I1868758
sg27
g5
ssS'TAYLOR MITCHELL S'
p416
(dp417
g3
I533
sg4
I227449
sg6
g5
sg7
I00
sg8
g5
sg9
S'mitchell.taylor@enron.com'
p418
sg11
g5
sg12
g5
sg13
I300
sg14
g5
sg15
I29
sg16
g5
sg17
F0.0
sg18
g5
sg19
I600000
sg20
I3745048
sg21
I0
sg22
I0
sg23
F0.0
sg24
I563798
sg25
I265214
sg26
I1092663
sg27
I3181250
ssS'DONAHUE JR JEFFREY M'
p419
(dp420
g3
I865
sg4
g5
sg6
I96268
sg7
I00
sg8
I-300000
sg9
S'jeff.donahue@enron.com'
p421
sg11
g5
sg12
g5
sg13
I772
sg14
g5
sg15
I22
sg16
I891
sg17
F0.012716763005780347
sg18
g5
sg19
I800000
sg20
I1080988
sg21
I188
sg22
I11
sg23
F8.545454545454545
sg24
I315068
sg25
I278601
sg26
I875760
sg27
I765920
ssS'GLISAN JR BEN F'
p422
(dp423
g3
I873
sg4
g5
sg6
I125978
sg7
I01
sg8
g5
sg9
S'ben.glisan@enron.com'
p424
sg11
I71023
sg12
g5
sg13
I874
sg14
g5
sg15
I16
sg16
I200308
sg17
F0.006872852233676976
sg18
g5
sg19
I600000
sg20
I778546
sg21
I52
sg22
I6
sg23
F3.25
sg24
I393818
sg25
I274975
sg26
I1272284
sg27
I384728
ss.